target datalayout = "e-m:e-p270:32:32-p271:32:32-p272:64:64-i64:64-i128:128-f80:128-n8:16:32:64-S128"
target triple = "x86_64-pc-linux-gnu"

%"struct.duckdb_brotli::BrotliDecoderStateStruct" = type { i32, i32, %"struct.duckdb_brotli::BrotliBitReader", ptr, ptr, ptr, %union.anon, i64, i32, i32, i32, i32, i32, i32, [4 x i32], i32, i32, ptr, ptr, ptr, ptr, ptr, ptr, %"struct.duckdb_brotli::HuffmanTreeGroup", %"struct.duckdb_brotli::HuffmanTreeGroup", %"struct.duckdb_brotli::HuffmanTreeGroup", ptr, ptr, i32, i32, [3 x i64], i64, [3 x i64], [6 x i64], i64, i64, i64, ptr, ptr, i64, i64, i64, [65 x i32], i32, i32, i8, ptr, ptr, ptr, i64, i32, i32, i32, i32, i32, i32, i64, ptr, ptr, ptr, ptr, [8 x i32], %union.anon.0 }
%"struct.duckdb_brotli::BrotliBitReader" = type { i64, i64, ptr, ptr, ptr }
%union.anon = type { i64 }
%"struct.duckdb_brotli::HuffmanTreeGroup" = type { ptr, ptr, i16, i16, i16 }
%union.anon.0 = type { %"struct.duckdb_brotli::BrotliMetablockBodyArena" }
%"struct.duckdb_brotli::BrotliMetablockBodyArena" = type { [544 x i8], [544 x i64] }
%"struct.duckdb_brotli::BrotliSharedDictionaryStruct" = type { i32, [15 x i64], [15 x ptr], i32, [64 x i8], i8, [64 x ptr], [64 x ptr], i8, ptr, i8, ptr, ptr, ptr, ptr, ptr }
%"struct.duckdb_brotli::BrotliDecoderCompoundDictionary" = type { i32, i32, i32, i32, i32, i32, [16 x ptr], [16 x i32], i32, [256 x i8] }

; Function Attrs: mustprogress uwtable
define internal noundef i32 @_ZN13duckdb_brotliL24AttachCompoundDictionaryEPNS_24BrotliDecoderStateStructEPKhm(ptr noundef %0, ptr noundef %1, i64 noundef %2) #1 {
  %4 = alloca i32, align 4
  %5 = alloca ptr, align 8
  %6 = alloca ptr, align 8
  %7 = alloca i64, align 8
  %8 = alloca ptr, align 8
  %9 = alloca i32, align 4
  store ptr %0, ptr %5, align 8, !tbaa !3
  store ptr %1, ptr %6, align 8, !tbaa !32
  store i64 %2, ptr %7, align 8, !tbaa !31
  call void @llvm.lifetime.start.p0(i64 8, ptr %8) #14
  %10 = load ptr, ptr %5, align 8, !tbaa !3
  %11 = getelementptr inbounds nuw %"struct.duckdb_brotli::BrotliDecoderStateStruct", ptr %10, i32 0, i32 60
  %12 = load ptr, ptr %11, align 8, !tbaa !41
  store ptr %12, ptr %8, align 8, !tbaa !42
  %13 = load ptr, ptr %5, align 8, !tbaa !3
  %14 = getelementptr inbounds nuw %"struct.duckdb_brotli::BrotliDecoderStateStruct", ptr %13, i32 0, i32 0
  %15 = load i32, ptr %14, align 8, !tbaa !12
  %16 = icmp ne i32 %15, 0
  br i1 %16, label %17, label %18

17:                                               ; preds = %3
  store i32 0, ptr %4, align 4
  store i32 1, ptr %9, align 4
  br label %84

18:                                               ; preds = %3
  %19 = load ptr, ptr %8, align 8, !tbaa !42
  %20 = icmp ne ptr %19, null
  br i1 %20, label %49, label %21

21:                                               ; preds = %18
  %22 = load ptr, ptr %5, align 8, !tbaa !3
  %23 = getelementptr inbounds nuw %"struct.duckdb_brotli::BrotliDecoderStateStruct", ptr %22, i32 0, i32 3
  %24 = load ptr, ptr %23, align 8, !tbaa !43
  %25 = load ptr, ptr %5, align 8, !tbaa !3
  %26 = getelementptr inbounds nuw %"struct.duckdb_brotli::BrotliDecoderStateStruct", ptr %25, i32 0, i32 5
  %27 = load ptr, ptr %26, align 8, !tbaa !28
  %28 = call noundef ptr %24(ptr noundef %27, i64 noundef 480)
  store ptr %28, ptr %8, align 8, !tbaa !42
  %29 = load ptr, ptr %8, align 8, !tbaa !42
  %30 = icmp ne ptr %29, null
  br i1 %30, label %32, label %31

31:                                               ; preds = %21
  store i32 0, ptr %4, align 4
  store i32 1, ptr %9, align 4
  br label %84

32:                                               ; preds = %21
  %33 = load ptr, ptr %8, align 8, !tbaa !42
  %34 = getelementptr inbounds nuw %"struct.duckdb_brotli::BrotliDecoderCompoundDictionary", ptr %33, i32 0, i32 0
  store i32 0, ptr %34, align 8, !tbaa !44
  %35 = load ptr, ptr %8, align 8, !tbaa !42
  %36 = getelementptr inbounds nuw %"struct.duckdb_brotli::BrotliDecoderCompoundDictionary", ptr %35, i32 0, i32 1
  store i32 0, ptr %36, align 4, !tbaa !46
  %37 = load ptr, ptr %8, align 8, !tbaa !42
  %38 = getelementptr inbounds nuw %"struct.duckdb_brotli::BrotliDecoderCompoundDictionary", ptr %37, i32 0, i32 4
  store i32 0, ptr %38, align 8, !tbaa !47
  %39 = load ptr, ptr %8, align 8, !tbaa !42
  %40 = getelementptr inbounds nuw %"struct.duckdb_brotli::BrotliDecoderCompoundDictionary", ptr %39, i32 0, i32 5
  store i32 0, ptr %40, align 4, !tbaa !48
  %41 = load ptr, ptr %8, align 8, !tbaa !42
  %42 = getelementptr inbounds nuw %"struct.duckdb_brotli::BrotliDecoderCompoundDictionary", ptr %41, i32 0, i32 8
  store i32 -1, ptr %42, align 8, !tbaa !49
  %43 = load ptr, ptr %8, align 8, !tbaa !42
  %44 = getelementptr inbounds nuw %"struct.duckdb_brotli::BrotliDecoderCompoundDictionary", ptr %43, i32 0, i32 7
  %45 = getelementptr inbounds [16 x i32], ptr %44, i64 0, i64 0
  store i32 0, ptr %45, align 8, !tbaa !10
  %46 = load ptr, ptr %8, align 8, !tbaa !42
  %47 = load ptr, ptr %5, align 8, !tbaa !3
  %48 = getelementptr inbounds nuw %"struct.duckdb_brotli::BrotliDecoderStateStruct", ptr %47, i32 0, i32 60
  store ptr %46, ptr %48, align 8, !tbaa !41
  br label %49

49:                                               ; preds = %32, %18
  %50 = load ptr, ptr %8, align 8, !tbaa !42
  %51 = getelementptr inbounds nuw %"struct.duckdb_brotli::BrotliDecoderCompoundDictionary", ptr %50, i32 0, i32 0
  %52 = load i32, ptr %51, align 8, !tbaa !44
  %53 = icmp eq i32 %52, 15
  br i1 %53, label %54, label %55

54:                                               ; preds = %49
  store i32 0, ptr %4, align 4
  store i32 1, ptr %9, align 4
  br label %84

55:                                               ; preds = %49
  %56 = load ptr, ptr %6, align 8, !tbaa !32
  %57 = load ptr, ptr %8, align 8, !tbaa !42
  %58 = getelementptr inbounds nuw %"struct.duckdb_brotli::BrotliDecoderCompoundDictionary", ptr %57, i32 0, i32 6
  %59 = load ptr, ptr %8, align 8, !tbaa !42
  %60 = getelementptr inbounds nuw %"struct.duckdb_brotli::BrotliDecoderCompoundDictionary", ptr %59, i32 0, i32 0
  %61 = load i32, ptr %60, align 8, !tbaa !44
  %62 = sext i32 %61 to i64
  %63 = getelementptr inbounds [16 x ptr], ptr %58, i64 0, i64 %62
  store ptr %56, ptr %63, align 8, !tbaa !32
  %64 = load ptr, ptr %8, align 8, !tbaa !42
  %65 = getelementptr inbounds nuw %"struct.duckdb_brotli::BrotliDecoderCompoundDictionary", ptr %64, i32 0, i32 0
  %66 = load i32, ptr %65, align 8, !tbaa !44
  %67 = add nsw i32 %66, 1
  store i32 %67, ptr %65, align 8, !tbaa !44
  %68 = load i64, ptr %7, align 8, !tbaa !31
  %69 = trunc i64 %68 to i32
  %70 = load ptr, ptr %8, align 8, !tbaa !42
  %71 = getelementptr inbounds nuw %"struct.duckdb_brotli::BrotliDecoderCompoundDictionary", ptr %70, i32 0, i32 1
  %72 = load i32, ptr %71, align 4, !tbaa !46
  %73 = add nsw i32 %72, %69
  store i32 %73, ptr %71, align 4, !tbaa !46
  %74 = load ptr, ptr %8, align 8, !tbaa !42
  %75 = getelementptr inbounds nuw %"struct.duckdb_brotli::BrotliDecoderCompoundDictionary", ptr %74, i32 0, i32 1
  %76 = load i32, ptr %75, align 4, !tbaa !46
  %77 = load ptr, ptr %8, align 8, !tbaa !42
  %78 = getelementptr inbounds nuw %"struct.duckdb_brotli::BrotliDecoderCompoundDictionary", ptr %77, i32 0, i32 7
  %79 = load ptr, ptr %8, align 8, !tbaa !42
  %80 = getelementptr inbounds nuw %"struct.duckdb_brotli::BrotliDecoderCompoundDictionary", ptr %79, i32 0, i32 0
  %81 = load i32, ptr %80, align 8, !tbaa !44
  %82 = sext i32 %81 to i64
  %83 = getelementptr inbounds [16 x i32], ptr %78, i64 0, i64 %82
  store i32 %76, ptr %83, align 4, !tbaa !10
  store i32 1, ptr %4, align 4
  store i32 1, ptr %9, align 4
  br label %84

84:                                               ; preds = %55, %54, %31, %17
  call void @llvm.lifetime.end.p0(i64 8, ptr %8) #14
  %85 = load i32, ptr %4, align 4
  ret i32 %85
}

; Function Attrs: mustprogress uwtable
define noundef i32 @_ZN13duckdb_brotli29BrotliDecoderAttachDictionaryEPNS_24BrotliDecoderStateStructENS_26BrotliSharedDictionaryTypeEmPKh(ptr noundef %0, i32 noundef %1, i64 noundef %2, ptr noundef %3) #1 {
  %5 = alloca i32, align 4
  %6 = alloca ptr, align 8
  %7 = alloca i32, align 4
  %8 = alloca i64, align 8
  %9 = alloca ptr, align 8
  %10 = alloca i64, align 8
  %11 = alloca i64, align 8
  %12 = alloca i32, align 4
  store ptr %0, ptr %6, align 8, !tbaa !3
  store i32 %1, ptr %7, align 4, !tbaa !29
  store i64 %2, ptr %8, align 8, !tbaa !31
  store ptr %3, ptr %9, align 8, !tbaa !32
  call void @llvm.lifetime.start.p0(i64 8, ptr %10) #14
  call void @llvm.lifetime.start.p0(i64 8, ptr %11) #14
  %13 = load ptr, ptr %6, align 8, !tbaa !3
  %14 = getelementptr inbounds nuw %"struct.duckdb_brotli::BrotliDecoderStateStruct", ptr %13, i32 0, i32 59
  %15 = load ptr, ptr %14, align 8, !tbaa !33
  %16 = getelementptr inbounds nuw %"struct.duckdb_brotli::BrotliSharedDictionaryStruct", ptr %15, i32 0, i32 0
  %17 = load i32, ptr %16, align 8, !tbaa !34
  %18 = zext i32 %17 to i64
  store i64 %18, ptr %11, align 8, !tbaa !31
  %19 = load ptr, ptr %6, align 8, !tbaa !3
  %20 = getelementptr inbounds nuw %"struct.duckdb_brotli::BrotliDecoderStateStruct", ptr %19, i32 0, i32 0
  %21 = load i32, ptr %20, align 8, !tbaa !12
  %22 = icmp ne i32 %21, 0
  br i1 %22, label %23, label %24

23:                                               ; preds = %4
  store i32 0, ptr %5, align 4
  store i32 1, ptr %12, align 4
  br label %69

24:                                               ; preds = %4
  %25 = load ptr, ptr %6, align 8, !tbaa !3
  %26 = getelementptr inbounds nuw %"struct.duckdb_brotli::BrotliDecoderStateStruct", ptr %25, i32 0, i32 59
  %27 = load ptr, ptr %26, align 8, !tbaa !33
  %28 = load i32, ptr %7, align 4, !tbaa !29
  %29 = load i64, ptr %8, align 8, !tbaa !31
  %30 = load ptr, ptr %9, align 8, !tbaa !32
  %31 = call noundef i32 @_ZN13duckdb_brotli28BrotliSharedDictionaryAttachEPNS_28BrotliSharedDictionaryStructENS_26BrotliSharedDictionaryTypeEmPKh(ptr noundef %27, i32 noundef %28, i64 noundef %29, ptr noundef %30)
  %32 = icmp ne i32 %31, 0
  br i1 %32, label %34, label %33

33:                                               ; preds = %24
  store i32 0, ptr %5, align 4
  store i32 1, ptr %12, align 4
  br label %69

34:                                               ; preds = %24
  %35 = load i64, ptr %11, align 8, !tbaa !31
  store i64 %35, ptr %10, align 8, !tbaa !31
  br label %36

36:                                               ; preds = %65, %34
  %37 = load i64, ptr %10, align 8, !tbaa !31
  %38 = load ptr, ptr %6, align 8, !tbaa !3
  %39 = getelementptr inbounds nuw %"struct.duckdb_brotli::BrotliDecoderStateStruct", ptr %38, i32 0, i32 59
  %40 = load ptr, ptr %39, align 8, !tbaa !33
  %41 = getelementptr inbounds nuw %"struct.duckdb_brotli::BrotliSharedDictionaryStruct", ptr %40, i32 0, i32 0
  %42 = load i32, ptr %41, align 8, !tbaa !34
  %43 = zext i32 %42 to i64
  %44 = icmp ult i64 %37, %43
  br i1 %44, label %45, label %68

45:                                               ; preds = %36
  %46 = load ptr, ptr %6, align 8, !tbaa !3
  %47 = load ptr, ptr %6, align 8, !tbaa !3
  %48 = getelementptr inbounds nuw %"struct.duckdb_brotli::BrotliDecoderStateStruct", ptr %47, i32 0, i32 59
  %49 = load ptr, ptr %48, align 8, !tbaa !33
  %50 = getelementptr inbounds nuw %"struct.duckdb_brotli::BrotliSharedDictionaryStruct", ptr %49, i32 0, i32 2
  %51 = load i64, ptr %10, align 8, !tbaa !31
  %52 = getelementptr inbounds nuw [15 x ptr], ptr %50, i64 0, i64 %51
  %53 = load ptr, ptr %52, align 8, !tbaa !32
  %54 = load ptr, ptr %6, align 8, !tbaa !3
  %55 = getelementptr inbounds nuw %"struct.duckdb_brotli::BrotliDecoderStateStruct", ptr %54, i32 0, i32 59
  %56 = load ptr, ptr %55, align 8, !tbaa !33
  %57 = getelementptr inbounds nuw %"struct.duckdb_brotli::BrotliSharedDictionaryStruct", ptr %56, i32 0, i32 1
  %58 = load i64, ptr %10, align 8, !tbaa !31
  %59 = getelementptr inbounds nuw [15 x i64], ptr %57, i64 0, i64 %58
  %60 = load i64, ptr %59, align 8, !tbaa !31
  %61 = call noundef i32 @_ZN13duckdb_brotliL24AttachCompoundDictionaryEPNS_24BrotliDecoderStateStructEPKhm(ptr noundef %46, ptr noundef %53, i64 noundef %60)
  %62 = icmp ne i32 %61, 0
  br i1 %62, label %64, label %63

63:                                               ; preds = %45
  store i32 0, ptr %5, align 4
  store i32 1, ptr %12, align 4
  br label %69

64:                                               ; preds = %45
  br label %65

65:                                               ; preds = %64
  %66 = load i64, ptr %10, align 8, !tbaa !31
  %67 = add i64 %66, 1
  store i64 %67, ptr %10, align 8, !tbaa !31
  br label %36, !llvm.loop !39

68:                                               ; preds = %36
  store i32 1, ptr %5, align 4
  store i32 1, ptr %12, align 4
  br label %69

69:                                               ; preds = %68, %63, %33, %23
  call void @llvm.lifetime.end.p0(i64 8, ptr %11) #14
  call void @llvm.lifetime.end.p0(i64 8, ptr %10) #14
  %70 = load i32, ptr %5, align 4
  ret i32 %70
}